; Function Attrs: mustprogress uwtable
define void @_ZN20TlsServerCredentials25create_security_connectorERKN9grpc_core11ChannelArgsE(ptr noalias sret(%"class.grpc_core::RefCountedPtr.14") align 8 %agg.result, ptr noundef nonnull align 8 dereferenceable(48) %this, ptr nocapture nonnull readnone align 8 %0) unnamed_addr #6 align 2 personality ptr @__gxx_personality_v0 {
entry:
  %agg.tmp = alloca %"class.grpc_core::RefCountedPtr.15", align 8
  %agg.tmp2 = alloca %"class.grpc_core::RefCountedPtr", align 8
  tail call void @llvm.experimental.noalias.scope.decl(metadata !11)
  %refs_.i.i = getelementptr inbounds i8, ptr %this, i64 8
  %1 = atomicrmw add ptr %refs_.i.i, i64 1 monotonic, align 8, !noalias !11
  store ptr %this, ptr %agg.tmp, align 8, !alias.scope !11
  %options_ = getelementptr inbounds i8, ptr %this, i64 40
  %2 = load ptr, ptr %options_, align 8
  %cmp.not.i = icmp eq ptr %2, null
  br i1 %cmp.not.i, label %invoke.cont, label %if.then.i

if.then.i:                                        ; preds = %entry
  %refs_.i.i2 = getelementptr inbounds i8, ptr %2, i64 8
  %3 = atomicrmw add ptr %refs_.i.i2, i64 1 monotonic, align 8
  %.pre.i = load ptr, ptr %options_, align 8
  br label %invoke.cont

invoke.cont:                                      ; preds = %if.then.i, %entry
  %4 = phi ptr [ %.pre.i, %if.then.i ], [ null, %entry ]
  store ptr %4, ptr %agg.tmp2, align 8
  invoke void @_ZN9grpc_core26TlsServerSecurityConnector32CreateTlsServerSecurityConnectorENS_13RefCountedPtrI23grpc_server_credentialsEENS1_I28grpc_tls_credentials_optionsEE(ptr sret(%"class.grpc_core::RefCountedPtr.14") align 8 %agg.result, ptr noundef nonnull %agg.tmp, ptr noundef nonnull %agg.tmp2)
          to label %invoke.cont4 unwind label %lpad3

invoke.cont4:                                     ; preds = %invoke.cont
  %5 = load ptr, ptr %agg.tmp2, align 8
  %cmp.not.i3 = icmp eq ptr %5, null
  br i1 %cmp.not.i3, label %_ZN9grpc_core13RefCountedPtrI28grpc_tls_credentials_optionsED2Ev.exit, label %if.then.i4

if.then.i4:                                       ; preds = %invoke.cont4
  %refs_.i.i5 = getelementptr inbounds i8, ptr %5, i64 8
  %6 = atomicrmw sub ptr %refs_.i.i5, i64 1 acq_rel, align 8
  %cmp.i.i.i = icmp eq i64 %6, 1
  br i1 %cmp.i.i.i, label %if.then.i.i, label %_ZN9grpc_core13RefCountedPtrI28grpc_tls_credentials_optionsED2Ev.exit

if.then.i.i:                                      ; preds = %if.then.i4
  %vtable.i.i.i = load ptr, ptr %5, align 8
  %vfn.i.i.i = getelementptr inbounds i8, ptr %vtable.i.i.i, i64 8
  %7 = load ptr, ptr %vfn.i.i.i, align 8
  call void %7(ptr noundef nonnull align 8 dereferenceable(217) %5) #17
  br label %_ZN9grpc_core13RefCountedPtrI28grpc_tls_credentials_optionsED2Ev.exit

_ZN9grpc_core13RefCountedPtrI28grpc_tls_credentials_optionsED2Ev.exit: ; preds = %invoke.cont4, %if.then.i4, %if.then.i.i
  %8 = load ptr, ptr %agg.tmp, align 8
  %cmp.not.i6 = icmp eq ptr %8, null
  br i1 %cmp.not.i6, label %_ZN9grpc_core13RefCountedPtrI23grpc_server_credentialsED2Ev.exit, label %if.then.i7

if.then.i7:                                       ; preds = %_ZN9grpc_core13RefCountedPtrI28grpc_tls_credentials_optionsED2Ev.exit
  %refs_.i.i8 = getelementptr inbounds i8, ptr %8, i64 8
  %9 = atomicrmw sub ptr %refs_.i.i8, i64 1 acq_rel, align 8
  %cmp.i.i.i9 = icmp eq i64 %9, 1
  br i1 %cmp.i.i.i9, label %if.then.i.i10, label %_ZN9grpc_core13RefCountedPtrI23grpc_server_credentialsED2Ev.exit

if.then.i.i10:                                    ; preds = %if.then.i7
  %vtable.i.i.i11 = load ptr, ptr %8, align 8
  %vfn.i.i.i12 = getelementptr inbounds i8, ptr %vtable.i.i.i11, i64 8
  %10 = load ptr, ptr %vfn.i.i.i12, align 8
  call void %10(ptr noundef nonnull align 8 dereferenceable(40) %8) #17
  br label %_ZN9grpc_core13RefCountedPtrI23grpc_server_credentialsED2Ev.exit

_ZN9grpc_core13RefCountedPtrI23grpc_server_credentialsED2Ev.exit: ; preds = %_ZN9grpc_core13RefCountedPtrI28grpc_tls_credentials_optionsED2Ev.exit, %if.then.i7, %if.then.i.i10
  ret void

lpad3:                                            ; preds = %invoke.cont
  %11 = landingpad { ptr, i32 }
          cleanup
  %12 = load ptr, ptr %agg.tmp2, align 8
  %cmp.not.i13 = icmp eq ptr %12, null
  br i1 %cmp.not.i13, label %ehcleanup, label %if.then.i14

if.then.i14:                                      ; preds = %lpad3
  %refs_.i.i15 = getelementptr inbounds i8, ptr %12, i64 8
  %13 = atomicrmw sub ptr %refs_.i.i15, i64 1 acq_rel, align 8
  %cmp.i.i.i16 = icmp eq i64 %13, 1
  br i1 %cmp.i.i.i16, label %if.then.i.i17, label %ehcleanup

if.then.i.i17:                                    ; preds = %if.then.i14
  %vtable.i.i.i18 = load ptr, ptr %12, align 8
  %vfn.i.i.i19 = getelementptr inbounds i8, ptr %vtable.i.i.i18, i64 8
  %14 = load ptr, ptr %vfn.i.i.i19, align 8
  call void %14(ptr noundef nonnull align 8 dereferenceable(217) %12) #17
  br label %ehcleanup

ehcleanup:                                        ; preds = %if.then.i.i17, %if.then.i14, %lpad3
  %15 = load ptr, ptr %agg.tmp, align 8
  %cmp.not.i21 = icmp eq ptr %15, null
  br i1 %cmp.not.i21, label %_ZN9grpc_core13RefCountedPtrI23grpc_server_credentialsED2Ev.exit28, label %if.then.i22

if.then.i22:                                      ; preds = %ehcleanup
  %refs_.i.i23 = getelementptr inbounds i8, ptr %15, i64 8
  %16 = atomicrmw sub ptr %refs_.i.i23, i64 1 acq_rel, align 8
  %cmp.i.i.i24 = icmp eq i64 %16, 1
  br i1 %cmp.i.i.i24, label %if.then.i.i25, label %_ZN9grpc_core13RefCountedPtrI23grpc_server_credentialsED2Ev.exit28

if.then.i.i25:                                    ; preds = %if.then.i22
  %vtable.i.i.i26 = load ptr, ptr %15, align 8
  %vfn.i.i.i27 = getelementptr inbounds i8, ptr %vtable.i.i.i26, i64 8
  %17 = load ptr, ptr %vfn.i.i.i27, align 8
  call void %17(ptr noundef nonnull align 8 dereferenceable(40) %15) #17
  br label %_ZN9grpc_core13RefCountedPtrI23grpc_server_credentialsED2Ev.exit28

_ZN9grpc_core13RefCountedPtrI23grpc_server_credentialsED2Ev.exit28: ; preds = %ehcleanup, %if.then.i22, %if.then.i.i25
  resume { ptr, i32 } %11
}